target datalayout = "e-m:e-p270:32:32-p271:32:32-p272:64:64-i64:64-i128:128-f80:128-n8:16:32:64-S128"
target triple = "x86_64-pc-linux-gnu"

%struct.XLogRecoveryCtlData = type { i8, i8, %struct.Latch, i64, i64, i32, i64, i32, i64, i64, i32, %struct.ConditionVariable, i8 }
%struct.Latch = type { i32, i32, i8, i32 }
%struct.ConditionVariable = type { i8, %struct.proclist_head }
%struct.proclist_head = type { i32, i32 }

@.str.3 = private unnamed_addr constant [18 x i8] c"XLOG Recovery Ctl\00", align 1
@XLogRecoveryCtl = internal global ptr null, align 8

; Function Attrs: nounwind uwtable
define dso_local i64 @XLogRecoveryShmemSize() #0 {
  %1 = alloca i64, align 8
  call void @llvm.lifetime.start.p0(i64 8, ptr %1) #14
  store i64 104, ptr %1, align 8
  %2 = load i64, ptr %1, align 8
  call void @llvm.lifetime.end.p0(i64 8, ptr %1) #14
  ret i64 %2
}

; Function Attrs: nounwind uwtable
define dso_local void @XLogRecoveryShmemInit() #0 {
  %1 = alloca i8, align 1
  %2 = alloca i32, align 4
  call void @llvm.lifetime.start.p0(i64 1, ptr %1) #14
  %3 = call i64 @XLogRecoveryShmemSize()
  %4 = call ptr @ShmemInitStruct(ptr noundef @.str.3, i64 noundef %3, ptr noundef %1)
  store ptr %4, ptr @XLogRecoveryCtl, align 8
  %5 = load i8, ptr %1, align 1, !range !4, !noundef !5
  %6 = trunc i8 %5 to i1
  br i1 %6, label %7, label %8

7:                                                ; preds = %0
  store i32 1, ptr %2, align 4
  br label %19

8:                                                ; preds = %0
  %9 = load ptr, ptr @XLogRecoveryCtl, align 8
  call void @llvm.memset.p0.i64(ptr align 8 %9, i8 0, i64 104, i1 false)
  br label %10

10:                                               ; preds = %8
  call void asm sideeffect "", "~{memory},~{dirflag},~{fpsr},~{flags}"() #14, !srcloc !6
  %11 = load ptr, ptr @XLogRecoveryCtl, align 8
  %12 = getelementptr inbounds nuw %struct.XLogRecoveryCtlData, ptr %11, i32 0, i32 12
  store i8 0, ptr %12, align 8
  br label %13

13:                                               ; preds = %10
  br label %14

14:                                               ; preds = %13
  %15 = load ptr, ptr @XLogRecoveryCtl, align 8
  %16 = getelementptr inbounds nuw %struct.XLogRecoveryCtlData, ptr %15, i32 0, i32 2
  call void @InitSharedLatch(ptr noundef %16)
  %17 = load ptr, ptr @XLogRecoveryCtl, align 8
  %18 = getelementptr inbounds nuw %struct.XLogRecoveryCtlData, ptr %17, i32 0, i32 11
  call void @ConditionVariableInit(ptr noundef %18)
  store i32 0, ptr %2, align 4
  br label %19

19:                                               ; preds = %14, %7
  call void @llvm.lifetime.end.p0(i64 1, ptr %1) #14
  %20 = load i32, ptr %2, align 4
  switch i32 %20, label %22 [
    i32 0, label %21
    i32 1, label %21
  ]

21:                                               ; preds = %19, %19
  ret void

22:                                               ; preds = %19
  unreachable
}