; Function Attrs: nounwind uwtable
define dso_local void @XLogRecoveryShmemInit() local_unnamed_addr #2 {
  %1 = alloca i8, align 1
  call void @llvm.lifetime.start.p0(i64 1, ptr nonnull %1) #23
  %2 = call ptr @ShmemInitStruct(ptr noundef nonnull @.str.3, i64 noundef 104, ptr noundef nonnull %1) #23
  store ptr %2, ptr @XLogRecoveryCtl, align 8
  %3 = load i8, ptr %1, align 1, !range !4, !noundef !5
  %4 = trunc nuw i8 %3 to i1
  br i1 %4, label %11, label %5

5:                                                ; preds = %0
  call void @llvm.memset.p0.i64(ptr noundef nonnull align 8 dereferenceable(104) %2, i8 0, i64 104, i1 false)
  call void asm sideeffect "", "~{memory},~{dirflag},~{fpsr},~{flags}"() #23, !srcloc !6
  %6 = load ptr, ptr @XLogRecoveryCtl, align 8
  %7 = getelementptr inbounds nuw i8, ptr %6, i64 96
  store i8 0, ptr %7, align 8
  %8 = getelementptr inbounds nuw i8, ptr %6, i64 4
  call void @InitSharedLatch(ptr noundef nonnull %8) #23
  %9 = load ptr, ptr @XLogRecoveryCtl, align 8
  %10 = getelementptr inbounds nuw i8, ptr %9, i64 84
  call void @ConditionVariableInit(ptr noundef nonnull %10) #23
  br label %11

11:                                               ; preds = %0, %5
  call void @llvm.lifetime.end.p0(i64 1, ptr nonnull %1) #23
  ret void
}